(lp0
ccopy_reg
_reconstructor
p1
(c__main__
Command
p2
c__builtin__
object
p3
Ntp4
Rp5
(dp6
S'c_id'
p7
I2
sS'name'
p8
Vdir
p9
sS'text'
p10
Vls -la
p11
sbag1
(g2
g3
Ntp12
Rp13
(dp14
g7
I2
sg8
VApache Start
p15
sg10
V/opt/lampp/lampp start
p16
sbag1
(g2
g3
Ntp17
Rp18
(dp19
g7
I4
sg8
VApache Stop
p20
sg10
V/opt/lampp/lampp stop
p21
sbag1
(g2
g3
Ntp22
Rp23
(dp24
g7
I4
sg8
VApache Restart
p25
sg10
V/opt/lampp/lampp restart
p26
sbag1
(g2
g3
Ntp27
Rp28
(dp29
g7
I5
sg8
VApache Status
p30
sg10
V/opt/lampp/lampp status
p31
sba.